target datalayout = "e-m:e-p270:32:32-p271:32:32-p272:64:64-i64:64-i128:128-f80:128-n8:16:32:64-S128"
target triple = "x86_64-pc-linux-gnu"

%"class.absl::debugging_internal::ElfMemImage" = type { ptr, ptr, ptr, ptr, ptr, i32, i64, i64, i64 }

@.str = private unnamed_addr constant [140 x i8] c"generated/home/dtcxzyw/WorkSpace/Projects/compilers/llvm-opt-benchmark/bench/abseil-cpp/abseil-cpp/absl/debugging/internal/elf_mem_image.cc\00", align 1
@.str.1 = private unnamed_addr constant [20 x i8] c"Check %s failed: %s\00", align 1
@.str.7 = private unnamed_addr constant [18 x i8] c"offset < strsize_\00", align 1
@.str.8 = private unnamed_addr constant [20 x i8] c"offset out of range\00", align 1

; Function Attrs: mustprogress uwtable
define dso_local noundef ptr @_ZNK4absl18debugging_internal11ElfMemImage9GetVerstrEj(ptr noundef nonnull align 8 dereferenceable(72) %0, i32 noundef %1) #0 align 2 {
  %3 = alloca ptr, align 8
  %4 = alloca i32, align 4
  %5 = alloca ptr, align 8
  store ptr %0, ptr %3, align 8, !tbaa !4
  store i32 %1, ptr %4, align 4, !tbaa !26
  %6 = load ptr, ptr %3, align 8
  br label %7

7:                                                ; preds = %2
  %8 = load i32, ptr %4, align 4, !tbaa !26
  %9 = zext i32 %8 to i64
  %10 = getelementptr inbounds nuw %"class.absl::debugging_internal::ElfMemImage", ptr %6, i32 0, i32 6
  %11 = load i64, ptr %10, align 8, !tbaa !22
  %12 = icmp ult i64 %9, %11
  %13 = xor i1 %12, true
  %14 = zext i1 %13 to i64
  %15 = call i64 @llvm.expect.i64(i64 %14, i64 0)
  %16 = icmp ne i64 %15, 0
  br i1 %16, label %17, label %23

17:                                               ; preds = %7
  br label %18

18:                                               ; preds = %17
  call void @llvm.lifetime.start.p0(i64 8, ptr %5) #7
  store ptr getelementptr (i8, ptr @.str, i64 123), ptr %5, align 8, !tbaa !10
  call void (i32, ptr, i32, ptr, ...) @_ZN4absl16raw_log_internal6RawLogENS_11LogSeverityEPKciS3_z(i32 noundef 3, ptr noundef getelementptr (i8, ptr @.str, i64 123), i32 noundef 144, ptr noundef @.str.1, ptr noundef @.str.7, ptr noundef @.str.8)
  br label %19

19:                                               ; preds = %18
  unreachable

20:                                               ; No predecessors!
  br label %21

21:                                               ; preds = %20
  call void @llvm.lifetime.end.p0(i64 8, ptr %5) #7
  br label %22

22:                                               ; preds = %21
  br label %23

23:                                               ; preds = %22, %7
  br label %24

24:                                               ; preds = %23
  %25 = getelementptr inbounds nuw %"class.absl::debugging_internal::ElfMemImage", ptr %6, i32 0, i32 4
  %26 = load ptr, ptr %25, align 8, !tbaa !18
  %27 = load i32, ptr %4, align 4, !tbaa !26
  %28 = zext i32 %27 to i64
  %29 = getelementptr inbounds nuw i8, ptr %26, i64 %28
  ret ptr %29
}